target datalayout = "e-m:e-p270:32:32-p271:32:32-p272:64:64-i64:64-i128:128-f80:128-n8:16:32:64-S128"
target triple = "x86_64-pc-linux-gnu"

%union.ListCell = type { ptr }
%struct.JsonScalarExpr = type { i32, ptr, ptr, i32 }

@.str.161 = private unnamed_addr constant [14 x i8] c"JSON_SCALAR()\00", align 1
@.str.162 = private unnamed_addr constant [12 x i8] c"JSON_SCALAR\00", align 1

; Function Attrs: nounwind uwtable
define internal ptr @transformJsonScalarExpr(ptr noundef %0, ptr noundef %1) #0 {
  %3 = alloca ptr, align 8
  %4 = alloca ptr, align 8
  %5 = alloca ptr, align 8
  %6 = alloca ptr, align 8
  %7 = alloca ptr, align 8
  %8 = alloca %union.ListCell, align 8
  store ptr %0, ptr %3, align 8
  store ptr %1, ptr %4, align 8
  call void @llvm.lifetime.start.p0(i64 8, ptr %5) #8
  %9 = load ptr, ptr %3, align 8
  %10 = load ptr, ptr %4, align 8
  %11 = getelementptr inbounds nuw %struct.JsonScalarExpr, ptr %10, i32 0, i32 1
  %12 = load ptr, ptr %11, align 8
  %13 = call ptr @transformExprRecurse(ptr noundef %9, ptr noundef %12)
  store ptr %13, ptr %5, align 8
  call void @llvm.lifetime.start.p0(i64 8, ptr %6) #8
  %14 = load ptr, ptr %4, align 8
  %15 = getelementptr inbounds nuw %struct.JsonScalarExpr, ptr %14, i32 0, i32 2
  %16 = load ptr, ptr %15, align 8
  store ptr %16, ptr %6, align 8
  call void @llvm.lifetime.start.p0(i64 8, ptr %7) #8
  %17 = load ptr, ptr %3, align 8
  %18 = load ptr, ptr %6, align 8
  %19 = call ptr @transformJsonReturning(ptr noundef %17, ptr noundef %18, ptr noundef @.str.161)
  store ptr %19, ptr %7, align 8
  %20 = load ptr, ptr %5, align 8
  %21 = call i32 @exprType(ptr noundef %20)
  %22 = icmp eq i32 %21, 705
  br i1 %22, label %23, label %27

23:                                               ; preds = %2
  %24 = load ptr, ptr %3, align 8
  %25 = load ptr, ptr %5, align 8
  %26 = call ptr @coerce_to_specific_type(ptr noundef %24, ptr noundef %25, i32 noundef 25, ptr noundef @.str.162)
  store ptr %26, ptr %5, align 8
  br label %27

27:                                               ; preds = %23, %2
  %28 = load ptr, ptr %3, align 8
  %29 = load ptr, ptr %5, align 8
  store ptr %29, ptr %8, align 8
  %30 = getelementptr inbounds nuw %union.ListCell, ptr %8, i32 0, i32 0
  %31 = load ptr, ptr %30, align 8
  %32 = call ptr @list_make1_impl(i32 noundef 1, ptr %31)
  %33 = load ptr, ptr %7, align 8
  %34 = load ptr, ptr %4, align 8
  %35 = getelementptr inbounds nuw %struct.JsonScalarExpr, ptr %34, i32 0, i32 3
  %36 = load i32, ptr %35, align 8
  %37 = call ptr @makeJsonConstructorExpr(ptr noundef %28, i32 noundef 6, ptr noundef %32, ptr noundef null, ptr noundef %33, i1 noundef zeroext false, i1 noundef zeroext false, i32 noundef %36)
  call void @llvm.lifetime.end.p0(i64 8, ptr %7) #8
  call void @llvm.lifetime.end.p0(i64 8, ptr %6) #8
  call void @llvm.lifetime.end.p0(i64 8, ptr %5) #8
  ret ptr %37
}