; Function Attrs: nounwind uwtable
define internal fastcc noundef ptr @transformJsonScalarExpr(ptr noundef %0, ptr noundef nonnull readonly captures(none) %1) unnamed_addr #0 {
  %3 = getelementptr inbounds nuw i8, ptr %1, i64 8
  %4 = load ptr, ptr %3, align 8
  %5 = tail call fastcc ptr @transformExprRecurse(ptr noundef %0, ptr noundef %4)
  %6 = getelementptr inbounds nuw i8, ptr %1, i64 16
  %7 = load ptr, ptr %6, align 8
  %8 = tail call fastcc ptr @transformJsonReturning(ptr noundef %0, ptr noundef %7, ptr noundef nonnull @.str.161)
  %9 = tail call i32 @exprType(ptr noundef %5) #9
  %10 = icmp eq i32 %9, 705
  br i1 %10, label %11, label %13

11:                                               ; preds = %2
  %12 = tail call ptr @coerce_to_specific_type(ptr noundef %0, ptr noundef %5, i32 noundef 25, ptr noundef nonnull @.str.162) #9
  br label %13

13:                                               ; preds = %11, %2
  %.0 = phi ptr [ %12, %11 ], [ %5, %2 ]
  %14 = tail call ptr @list_make1_impl(i32 noundef 1, ptr %.0) #9
  %15 = getelementptr inbounds nuw i8, ptr %1, i64 24
  %16 = load i32, ptr %15, align 8
  %17 = tail call fastcc ptr @makeJsonConstructorExpr(ptr noundef %0, i32 noundef 6, ptr noundef %14, ptr noundef null, ptr noundef %8, i1 noundef zeroext false, i1 noundef zeroext false, i32 noundef %16)
  ret ptr %17
}